; Function Attrs: mustprogress uwtable
define hidden void @_ZN3smt10theory_sls14run_guided_slsEv(ptr noundef nonnull align 8 dereferenceable(184) %0) local_unnamed_addr #4 align 2 {
  %2 = getelementptr inbounds nuw i8, ptr %0, i64 80
  %3 = load ptr, ptr %2, align 8, !tbaa !522
  tail call void @_ZN3sls10smt_plugin17smt_values_to_slsEv(ptr noundef nonnull align 8 dereferenceable(3024) %3)
  %4 = getelementptr inbounds nuw i8, ptr %0, i64 93
  %5 = load i8, ptr %4, align 1, !tbaa !506, !range !559, !noundef !560
  %6 = trunc nuw i8 %5 to i1
  br i1 %6, label %41, label %7

7:                                                ; preds = %1
  %8 = getelementptr inbounds nuw i8, ptr %0, i64 64
  %9 = load i32, ptr %8, align 8, !tbaa !580
  %10 = add i32 %9, 1
  store i32 %10, ptr %8, align 8, !tbaa !580
  %11 = load ptr, ptr %2, align 8, !tbaa !522
  tail call void @_ZN3sls10smt_plugin16smt_phase_to_slsEv(ptr noundef nonnull align 8 dereferenceable(3024) %11)
  %12 = load ptr, ptr %2, align 8, !tbaa !522
  tail call void @_ZN3sls10smt_plugin16smt_units_to_slsEv(ptr noundef nonnull align 8 dereferenceable(3024) %12)
  %13 = getelementptr inbounds nuw i8, ptr %0, i64 112
  %14 = load i32, ptr %13, align 8, !tbaa !516
  %15 = load ptr, ptr %2, align 8, !tbaa !522
  tail call void @_ZN3sls10smt_plugin11bounded_runEj(ptr noundef nonnull align 8 dereferenceable(3024) %15, i32 noundef %14)
  %16 = load ptr, ptr %2, align 8, !tbaa !522
  %17 = getelementptr inbounds nuw i8, ptr %16, i64 2808
  %18 = load atomic i32, ptr %17 seq_cst, align 4
  %19 = icmp eq i32 %18, 1
  br i1 %19, label %20, label %_ZN3smt10theory_sls11bounded_runEj.exit

20:                                               ; preds = %7
  %21 = load ptr, ptr %2, align 8, !tbaa !522
  %22 = getelementptr inbounds nuw i8, ptr %0, i64 72
  %23 = getelementptr inbounds nuw i8, ptr %0, i64 160
  tail call void @_ZN3sls10smt_plugin8finalizeER3refI5modelER10statistics(ptr noundef nonnull align 8 dereferenceable(3024) %21, ptr noundef nonnull align 8 dereferenceable(8) %22, ptr noundef nonnull align 8 dereferenceable(16) %23)
  store ptr null, ptr %2, align 8, !tbaa !522
  %24 = getelementptr inbounds nuw i8, ptr %0, i64 156
  store i8 0, ptr %24, align 4, !tbaa !532
  br label %_ZN3smt10theory_sls11bounded_runEj.exit

_ZN3smt10theory_sls11bounded_runEj.exit:          ; preds = %7, %20
  %25 = load i32, ptr %13, align 8, !tbaa !516
  %26 = getelementptr inbounds nuw i8, ptr %0, i64 120
  %27 = load i32, ptr %26, align 8, !tbaa !518
  %28 = icmp ugt i32 %25, %27
  br i1 %28, label %29, label %_ZN3smt10theory_sls24dec_final_check_ls_stepsEv.exit

29:                                               ; preds = %_ZN3smt10theory_sls11bounded_runEj.exit
  %30 = getelementptr inbounds nuw i8, ptr %0, i64 116
  %31 = load i32, ptr %30, align 4, !tbaa !517
  %32 = sub i32 %25, %31
  store i32 %32, ptr %13, align 8, !tbaa !516
  br label %_ZN3smt10theory_sls24dec_final_check_ls_stepsEv.exit

_ZN3smt10theory_sls24dec_final_check_ls_stepsEv.exit: ; preds = %_ZN3smt10theory_sls11bounded_runEj.exit, %29
  %33 = load ptr, ptr %2, align 8, !tbaa !522
  %.not = icmp eq ptr %33, null
  br i1 %.not, label %41, label %34

34:                                               ; preds = %_ZN3smt10theory_sls24dec_final_check_ls_stepsEv.exit
  tail call void @_ZN3sls10smt_plugin16sls_phase_to_smtEv(ptr noundef nonnull align 8 dereferenceable(3024) %33)
  %35 = load ptr, ptr %2, align 8, !tbaa !522
  tail call void @_ZN3sls10smt_plugin17sls_values_to_smtEv(ptr noundef nonnull align 8 dereferenceable(3024) %35)
  %36 = load i32, ptr %8, align 8, !tbaa !580
  %37 = urem i32 %36, 20
  %38 = icmp eq i32 %37, 0
  br i1 %38, label %39, label %41

39:                                               ; preds = %34
  %40 = load ptr, ptr %2, align 8, !tbaa !522
  tail call void @_ZN3sls10smt_plugin19sls_activity_to_smtEv(ptr noundef nonnull align 8 dereferenceable(3024) %40)
  br label %41

41:                                               ; preds = %34, %39, %1, %_ZN3smt10theory_sls24dec_final_check_ls_stepsEv.exit
  ret void
}